target datalayout = "e-m:e-p270:32:32-p271:32:32-p272:64:64-i64:64-i128:128-f80:128-n8:16:32:64-S128"
target triple = "x86_64-pc-linux-gnu"

; Function Attrs: nounwind uwtable
define void @Ptngc_comp_huff_compress(ptr noundef %0, i32 noundef %1, ptr noundef %2, ptr noundef %3) #0 {
  %5 = alloca ptr, align 8
  %6 = alloca i32, align 4
  %7 = alloca ptr, align 8
  %8 = alloca ptr, align 8
  %9 = alloca [3 x i32], align 4
  %10 = alloca i32, align 4
  %11 = alloca i32, align 4
  store ptr %0, ptr %5, align 8, !tbaa !7
  store i32 %1, ptr %6, align 4, !tbaa !3
  store ptr %2, ptr %7, align 8, !tbaa !10
  store ptr %3, ptr %8, align 8, !tbaa !7
  call void @llvm.lifetime.start.p0(i64 12, ptr %9) #4
  call void @llvm.lifetime.start.p0(i64 4, ptr %10) #4
  store i32 -1, ptr %10, align 4, !tbaa !3
  call void @llvm.lifetime.start.p0(i64 4, ptr %11) #4
  %12 = load ptr, ptr %5, align 8, !tbaa !7
  %13 = load i32, ptr %6, align 4, !tbaa !3
  %14 = load ptr, ptr %7, align 8, !tbaa !10
  %15 = load ptr, ptr %8, align 8, !tbaa !7
  %16 = getelementptr inbounds [3 x i32], ptr %9, i64 0, i64 0
  call void @Ptngc_comp_huff_compress_verbose(ptr noundef %12, i32 noundef %13, ptr noundef %14, ptr noundef %15, ptr noundef %11, ptr noundef %16, ptr noundef %10, i32 noundef 0)
  call void @llvm.lifetime.end.p0(i64 4, ptr %11) #4
  call void @llvm.lifetime.end.p0(i64 4, ptr %10) #4
  call void @llvm.lifetime.end.p0(i64 12, ptr %9) #4
  ret void
}