; Function Attrs: nounwind uwtable
define void @Ptngc_comp_huff_compress(ptr noundef %0, i32 noundef %1, ptr noundef %2, ptr noundef writeonly captures(none) initializes((0, 4)) %3) local_unnamed_addr #1 {
  %5 = alloca [3 x i32], align 4
  %6 = alloca i32, align 4
  %7 = alloca i32, align 4
  call void @llvm.lifetime.start.p0(i64 12, ptr nonnull %5) #5
  call void @llvm.lifetime.start.p0(i64 4, ptr nonnull %6) #5
  store i32 -1, ptr %6, align 4, !tbaa !3
  call void @llvm.lifetime.start.p0(i64 4, ptr nonnull %7) #5
  call void @Ptngc_comp_huff_compress_verbose(ptr noundef %0, i32 noundef %1, ptr noundef %2, ptr noundef %3, ptr noundef nonnull %7, ptr noundef nonnull %5, ptr noundef nonnull %6, i32 noundef 0)
  call void @llvm.lifetime.end.p0(i64 4, ptr nonnull %7) #5
  call void @llvm.lifetime.end.p0(i64 4, ptr nonnull %6) #5
  call void @llvm.lifetime.end.p0(i64 12, ptr nonnull %5) #5
  ret void
}